; Function Attrs: inlinehint nofree norecurse nosync nounwind memory(argmem: readwrite) uwtable
define internal fastcc i32 @Abc_TtMinBase(ptr noundef %0, ptr noundef %1, i32 noundef range(i32 0, 256) %2, i32 noundef range(i32 0, 256) %3) unnamed_addr #3 {
  %.not = icmp eq i32 %2, 0
  br i1 %.not, label %._crit_edge, label %.lr.ph

.lr.ph:                                           ; preds = %4
  %5 = icmp samesign ult i32 %3, 7
  %6 = add nsw i32 %3, -6
  %7 = shl nuw i32 1, %6
  %8 = sext i32 %7 to i64
  %9 = getelementptr inbounds i64, ptr %0, i64 %8
  %smax56.i = tail call i32 @llvm.smax.i32(i32 %7, i32 1)
  %wide.trip.count57.i = zext nneg i32 %smax56.i to i64
  %.not26 = icmp eq ptr %1, null
  br i1 %5, label %.lr.ph.split.us, label %.lr.ph.split

.lr.ph.split.us:                                  ; preds = %.lr.ph
  %wide.trip.count82 = zext nneg i32 %2 to i64
  br i1 %.not26, label %Abc_TtHasVar.exit.us.us, label %Abc_TtHasVar.exit.us

Abc_TtHasVar.exit.us.us:                          ; preds = %.lr.ph.split.us, %Abc_TtHasVar.exit.thread.us.us
  %indvars.iv79 = phi i64 [ %indvars.iv.next80, %Abc_TtHasVar.exit.thread.us.us ], [ 0, %.lr.ph.split.us ]
  %.038.us.us = phi i32 [ %.1.us.us, %Abc_TtHasVar.exit.thread.us.us ], [ 0, %.lr.ph.split.us ]
  %10 = load i64, ptr %0, align 8, !tbaa !11
  %11 = trunc nuw nsw i64 %indvars.iv79 to i32
  %12 = shl nuw i32 1, %11
  %13 = zext nneg i32 %12 to i64
  %14 = lshr i64 %10, %13
  %15 = getelementptr inbounds nuw [6 x i64], ptr @s_Truths6Neg, i64 0, i64 %indvars.iv79
  %16 = load i64, ptr %15, align 8, !tbaa !11
  %17 = xor i64 %14, %10
  %18 = and i64 %17, %16
  %.not33.us.us = icmp eq i64 %18, 0
  br i1 %.not33.us.us, label %Abc_TtHasVar.exit.thread.us.us, label %Abc_TtHasVar.exit.thread30.us.us

Abc_TtHasVar.exit.thread30.us.us:                 ; preds = %Abc_TtHasVar.exit.us.us
  %19 = sext i32 %.038.us.us to i64
  %20 = icmp sgt i64 %indvars.iv79, %19
  br i1 %20, label %21, label %22

21:                                               ; preds = %Abc_TtHasVar.exit.thread30.us.us
  tail call fastcc void @Abc_TtSwapVars(ptr noundef nonnull %0, i32 noundef %3, i32 noundef %.038.us.us, i32 noundef %11)
  br label %22

22:                                               ; preds = %21, %Abc_TtHasVar.exit.thread30.us.us
  %23 = add nsw i32 %.038.us.us, 1
  br label %Abc_TtHasVar.exit.thread.us.us

Abc_TtHasVar.exit.thread.us.us:                   ; preds = %22, %Abc_TtHasVar.exit.us.us
  %.1.us.us = phi i32 [ %23, %22 ], [ %.038.us.us, %Abc_TtHasVar.exit.us.us ]
  %indvars.iv.next80 = add nuw nsw i64 %indvars.iv79, 1
  %exitcond83.not = icmp eq i64 %indvars.iv.next80, %wide.trip.count82
  br i1 %exitcond83.not, label %._crit_edge, label %Abc_TtHasVar.exit.us.us, !llvm.loop !89

Abc_TtHasVar.exit.us:                             ; preds = %.lr.ph.split.us, %Abc_TtHasVar.exit.thread.us
  %indvars.iv74 = phi i64 [ %indvars.iv.next75, %Abc_TtHasVar.exit.thread.us ], [ 0, %.lr.ph.split.us ]
  %.038.us = phi i32 [ %.1.us, %Abc_TtHasVar.exit.thread.us ], [ 0, %.lr.ph.split.us ]
  %24 = load i64, ptr %0, align 8, !tbaa !11
  %25 = trunc nuw nsw i64 %indvars.iv74 to i32
  %26 = shl nuw i32 1, %25
  %27 = zext nneg i32 %26 to i64
  %28 = lshr i64 %24, %27
  %29 = getelementptr inbounds nuw [6 x i64], ptr @s_Truths6Neg, i64 0, i64 %indvars.iv74
  %30 = load i64, ptr %29, align 8, !tbaa !11
  %31 = xor i64 %28, %24
  %32 = and i64 %31, %30
  %.not33.us = icmp eq i64 %32, 0
  br i1 %.not33.us, label %Abc_TtHasVar.exit.thread.us, label %Abc_TtHasVar.exit.thread30.us

Abc_TtHasVar.exit.thread30.us:                    ; preds = %Abc_TtHasVar.exit.us
  %33 = sext i32 %.038.us to i64
  %34 = icmp sgt i64 %indvars.iv74, %33
  br i1 %34, label %35, label %39

35:                                               ; preds = %Abc_TtHasVar.exit.thread30.us
  %36 = getelementptr inbounds nuw i32, ptr %1, i64 %indvars.iv74
  %37 = load i32, ptr %36, align 4, !tbaa !7
  %38 = getelementptr inbounds i32, ptr %1, i64 %33
  store i32 %37, ptr %38, align 4, !tbaa !7
  tail call fastcc void @Abc_TtSwapVars(ptr noundef nonnull %0, i32 noundef %3, i32 noundef %.038.us, i32 noundef %25)
  br label %39

39:                                               ; preds = %35, %Abc_TtHasVar.exit.thread30.us
  %40 = add nsw i32 %.038.us, 1
  br label %Abc_TtHasVar.exit.thread.us

Abc_TtHasVar.exit.thread.us:                      ; preds = %39, %Abc_TtHasVar.exit.us
  %.1.us = phi i32 [ %40, %39 ], [ %.038.us, %Abc_TtHasVar.exit.us ]
  %indvars.iv.next75 = add nuw nsw i64 %indvars.iv74, 1
  %exitcond78.not = icmp eq i64 %indvars.iv.next75, %wide.trip.count82
  br i1 %exitcond78.not, label %._crit_edge, label %Abc_TtHasVar.exit.us, !llvm.loop !89

.lr.ph.split:                                     ; preds = %.lr.ph
  %.not48.i = icmp eq i32 %6, 31
  br i1 %.not48.i, label %._crit_edge, label %.lr.ph.split.split.split.preheader

.lr.ph.split.split.split.preheader:               ; preds = %.lr.ph.split
  %wide.trip.count = zext nneg i32 %2 to i64
  br label %.lr.ph.split.split.split

.lr.ph.split.split.split:                         ; preds = %.lr.ph.split.split.split.preheader, %Abc_TtHasVar.exit.thread
  %indvars.iv = phi i64 [ 0, %.lr.ph.split.split.split.preheader ], [ %indvars.iv.next, %Abc_TtHasVar.exit.thread ]
  %.038 = phi i32 [ 0, %.lr.ph.split.split.split.preheader ], [ %.1, %Abc_TtHasVar.exit.thread ]
  %41 = icmp samesign ult i64 %indvars.iv, 6
  br i1 %41, label %.lr.ph.i, label %.preheader.lr.ph.i

.lr.ph.i:                                         ; preds = %.lr.ph.split.split.split
  %42 = trunc nuw nsw i64 %indvars.iv to i32
  %43 = shl nuw nsw i32 1, %42
  %44 = zext nneg i32 %43 to i64
  %45 = getelementptr inbounds nuw [6 x i64], ptr @s_Truths6Neg, i64 0, i64 %indvars.iv
  %46 = load i64, ptr %45, align 8, !tbaa !11
  br label %48

47:                                               ; preds = %48
  %indvars.iv.next54.i = add nuw nsw i64 %indvars.iv53.i, 1
  %exitcond58.not.i = icmp eq i64 %indvars.iv.next54.i, %wide.trip.count57.i
  br i1 %exitcond58.not.i, label %Abc_TtHasVar.exit.thread, label %48, !llvm.loop !90

48:                                               ; preds = %47, %.lr.ph.i
  %indvars.iv53.i = phi i64 [ 0, %.lr.ph.i ], [ %indvars.iv.next54.i, %47 ]
  %49 = getelementptr inbounds nuw i64, ptr %0, i64 %indvars.iv53.i
  %50 = load i64, ptr %49, align 8, !tbaa !11
  %51 = lshr i64 %50, %44
  %52 = xor i64 %51, %50
  %53 = and i64 %52, %46
  %.not39.i = icmp eq i64 %53, 0
  br i1 %.not39.i, label %47, label %Abc_TtHasVar.exit.thread30

.preheader.lr.ph.i:                               ; preds = %.lr.ph.split.split.split
  %54 = add nsw i64 %indvars.iv, -6
  %55 = icmp eq i64 %54, 31
  %56 = trunc nsw i64 %54 to i32
  %57 = shl i32 2, %56
  %58 = sext i32 %57 to i64
  br i1 %55, label %Abc_TtHasVar.exit.thread, label %.preheader.us.preheader.i

.preheader.us.preheader.i:                        ; preds = %.preheader.lr.ph.i
  %59 = shl nuw i32 1, %56
  %60 = sext i32 %59 to i64
  %smax.i = tail call i32 @llvm.smax.i32(i32 %59, i32 1)
  %wide.trip.count.i = zext nneg i32 %smax.i to i64
  br label %.preheader.us.i

.preheader.us.i:                                  ; preds = %._crit_edge.us.i, %.preheader.us.preheader.i
  %.03143.us.i = phi ptr [ %66, %._crit_edge.us.i ], [ %0, %.preheader.us.preheader.i ]
  %invariant.gep.i = getelementptr i64, ptr %.03143.us.i, i64 %60
  br label %62

61:                                               ; preds = %62
  %indvars.iv.next.i = add nuw nsw i64 %indvars.iv.i, 1
  %exitcond.not.i = icmp eq i64 %indvars.iv.next.i, %wide.trip.count.i
  br i1 %exitcond.not.i, label %._crit_edge.us.i, label %62, !llvm.loop !91

62:                                               ; preds = %61, %.preheader.us.i
  %indvars.iv.i = phi i64 [ 0, %.preheader.us.i ], [ %indvars.iv.next.i, %61 ]
  %63 = getelementptr inbounds nuw i64, ptr %.03143.us.i, i64 %indvars.iv.i
  %64 = load i64, ptr %63, align 8, !tbaa !11
  %gep.i = getelementptr i64, ptr %invariant.gep.i, i64 %indvars.iv.i
  %65 = load i64, ptr %gep.i, align 8, !tbaa !11
  %.not.us.i = icmp eq i64 %64, %65
  br i1 %.not.us.i, label %61, label %Abc_TtHasVar.exit.thread30

._crit_edge.us.i:                                 ; preds = %61
  %66 = getelementptr inbounds i64, ptr %.03143.us.i, i64 %58
  %67 = icmp ult ptr %66, %9
  br i1 %67, label %.preheader.us.i, label %Abc_TtHasVar.exit.thread, !llvm.loop !92

Abc_TtHasVar.exit.thread30:                       ; preds = %48, %62
  %68 = sext i32 %.038 to i64
  %69 = icmp sgt i64 %indvars.iv, %68
  br i1 %69, label %70, label %77

70:                                               ; preds = %Abc_TtHasVar.exit.thread30
  br i1 %.not26, label %75, label %71

71:                                               ; preds = %70
  %72 = getelementptr inbounds nuw i32, ptr %1, i64 %indvars.iv
  %73 = load i32, ptr %72, align 4, !tbaa !7
  %74 = getelementptr inbounds i32, ptr %1, i64 %68
  store i32 %73, ptr %74, align 4, !tbaa !7
  br label %75

75:                                               ; preds = %71, %70
  %76 = trunc nuw nsw i64 %indvars.iv to i32
  tail call fastcc void @Abc_TtSwapVars(ptr noundef %0, i32 noundef %3, i32 noundef %.038, i32 noundef %76)
  br label %77

77:                                               ; preds = %75, %Abc_TtHasVar.exit.thread30
  %78 = add nsw i32 %.038, 1
  br label %Abc_TtHasVar.exit.thread

Abc_TtHasVar.exit.thread:                         ; preds = %._crit_edge.us.i, %47, %.preheader.lr.ph.i, %77
  %.1 = phi i32 [ %78, %77 ], [ %.038, %.preheader.lr.ph.i ], [ %.038, %47 ], [ %.038, %._crit_edge.us.i ]
  %indvars.iv.next = add nuw nsw i64 %indvars.iv, 1
  %exitcond.not = icmp eq i64 %indvars.iv.next, %wide.trip.count
  br i1 %exitcond.not, label %._crit_edge, label %.lr.ph.split.split.split, !llvm.loop !89

._crit_edge:                                      ; preds = %Abc_TtHasVar.exit.thread, %Abc_TtHasVar.exit.thread.us, %Abc_TtHasVar.exit.thread.us.us, %.lr.ph.split, %4
  %.0.lcssa = phi i32 [ 0, %4 ], [ 0, %.lr.ph.split ], [ %.1.us.us, %Abc_TtHasVar.exit.thread.us.us ], [ %.1.us, %Abc_TtHasVar.exit.thread.us ], [ %.1, %Abc_TtHasVar.exit.thread ]
  ret i32 %.0.lcssa
}